target datalayout = "e-m:e-p270:32:32-p271:32:32-p272:64:64-i64:64-i128:128-f80:128-n8:16:32:64-S128"
target triple = "x86_64-pc-linux-gnu"

; Function Attrs: noinline nounwind uwtable
define internal ptr @qsort_interruptible_med3(ptr noundef %0, ptr noundef %1, ptr noundef %2, ptr noundef %3, ptr noundef %4) #5 {
  %6 = alloca ptr, align 8
  %7 = alloca ptr, align 8
  %8 = alloca ptr, align 8
  %9 = alloca ptr, align 8
  %10 = alloca ptr, align 8
  store ptr %0, ptr %6, align 8
  store ptr %1, ptr %7, align 8
  store ptr %2, ptr %8, align 8
  store ptr %3, ptr %9, align 8
  store ptr %4, ptr %10, align 8
  %11 = load ptr, ptr %9, align 8
  %12 = load ptr, ptr %6, align 8
  %13 = load ptr, ptr %7, align 8
  %14 = load ptr, ptr %10, align 8
  %15 = call i32 %11(ptr noundef %12, ptr noundef %13, ptr noundef %14)
  %16 = icmp slt i32 %15, 0
  br i1 %16, label %17, label %41

17:                                               ; preds = %5
  %18 = load ptr, ptr %9, align 8
  %19 = load ptr, ptr %7, align 8
  %20 = load ptr, ptr %8, align 8
  %21 = load ptr, ptr %10, align 8
  %22 = call i32 %18(ptr noundef %19, ptr noundef %20, ptr noundef %21)
  %23 = icmp slt i32 %22, 0
  br i1 %23, label %24, label %26

24:                                               ; preds = %17
  %25 = load ptr, ptr %7, align 8
  br label %39

26:                                               ; preds = %17
  %27 = load ptr, ptr %9, align 8
  %28 = load ptr, ptr %6, align 8
  %29 = load ptr, ptr %8, align 8
  %30 = load ptr, ptr %10, align 8
  %31 = call i32 %27(ptr noundef %28, ptr noundef %29, ptr noundef %30)
  %32 = icmp slt i32 %31, 0
  br i1 %32, label %33, label %35

33:                                               ; preds = %26
  %34 = load ptr, ptr %8, align 8
  br label %37

35:                                               ; preds = %26
  %36 = load ptr, ptr %6, align 8
  br label %37

37:                                               ; preds = %35, %33
  %38 = phi ptr [ %34, %33 ], [ %36, %35 ]
  br label %39

39:                                               ; preds = %37, %24
  %40 = phi ptr [ %25, %24 ], [ %38, %37 ]
  br label %65

41:                                               ; preds = %5
  %42 = load ptr, ptr %9, align 8
  %43 = load ptr, ptr %7, align 8
  %44 = load ptr, ptr %8, align 8
  %45 = load ptr, ptr %10, align 8
  %46 = call i32 %42(ptr noundef %43, ptr noundef %44, ptr noundef %45)
  %47 = icmp sgt i32 %46, 0
  br i1 %47, label %48, label %50

48:                                               ; preds = %41
  %49 = load ptr, ptr %7, align 8
  br label %63

50:                                               ; preds = %41
  %51 = load ptr, ptr %9, align 8
  %52 = load ptr, ptr %6, align 8
  %53 = load ptr, ptr %8, align 8
  %54 = load ptr, ptr %10, align 8
  %55 = call i32 %51(ptr noundef %52, ptr noundef %53, ptr noundef %54)
  %56 = icmp slt i32 %55, 0
  br i1 %56, label %57, label %59

57:                                               ; preds = %50
  %58 = load ptr, ptr %6, align 8
  br label %61

59:                                               ; preds = %50
  %60 = load ptr, ptr %8, align 8
  br label %61

61:                                               ; preds = %59, %57
  %62 = phi ptr [ %58, %57 ], [ %60, %59 ]
  br label %63

63:                                               ; preds = %61, %48
  %64 = phi ptr [ %49, %48 ], [ %62, %61 ]
  br label %65

65:                                               ; preds = %63, %39
  %66 = phi ptr [ %40, %39 ], [ %64, %63 ]
  ret ptr %66
}